target datalayout = "e-m:e-p270:32:32-p271:32:32-p272:64:64-i64:64-i128:128-f80:128-n8:16:32:64-S128"
target triple = "x86_64-pc-linux-gnu"

; Function Attrs: inlinehint nounwind uwtable
define internal ptr @ossl_check_ASN1_OBJECT_freefunc_type(ptr noundef %0) #3 {
  %2 = alloca ptr, align 8
  store ptr %0, ptr %2, align 8, !tbaa !22
  %3 = load ptr, ptr %2, align 8, !tbaa !22
  ret ptr %3
}

; Function Attrs: inlinehint nounwind uwtable
define internal ptr @ossl_check_ASN1_OBJECT_type(ptr noundef %0) #3 {
  %2 = alloca ptr, align 8
  store ptr %0, ptr %2, align 8, !tbaa !18
  %3 = load ptr, ptr %2, align 8, !tbaa !18
  ret ptr %3
}

; Function Attrs: inlinehint nounwind uwtable
define internal ptr @ossl_check_ASN1_OBJECT_sk_type(ptr noundef %0) #3 {
  %2 = alloca ptr, align 8
  store ptr %0, ptr %2, align 8, !tbaa !64
  %3 = load ptr, ptr %2, align 8, !tbaa !64
  ret ptr %3
}

; Function Attrs: nounwind uwtable
define ptr @OCSP_accept_responses_new(ptr noundef %0) #0 {
  %2 = alloca ptr, align 8
  %3 = alloca i32, align 4
  %4 = alloca ptr, align 8
  %5 = alloca ptr, align 8
  %6 = alloca ptr, align 8
  store ptr %0, ptr %2, align 8, !tbaa !62
  call void @llvm.lifetime.start.p0(i64 4, ptr %3) #5
  call void @llvm.lifetime.start.p0(i64 8, ptr %4) #5
  store ptr null, ptr %4, align 8, !tbaa !64
  call void @llvm.lifetime.start.p0(i64 8, ptr %5) #5
  store ptr null, ptr %5, align 8, !tbaa !18
  call void @llvm.lifetime.start.p0(i64 8, ptr %6) #5
  store ptr null, ptr %6, align 8, !tbaa !25
  %7 = call ptr @OPENSSL_sk_new_null()
  store ptr %7, ptr %4, align 8, !tbaa !64
  %8 = icmp eq ptr %7, null
  br i1 %8, label %9, label %10

9:                                                ; preds = %1
  br label %44

10:                                               ; preds = %1
  br label %11

11:                                               ; preds = %38, %10
  %12 = load ptr, ptr %2, align 8, !tbaa !62
  %13 = icmp ne ptr %12, null
  br i1 %13, label %14, label %18

14:                                               ; preds = %11
  %15 = load ptr, ptr %2, align 8, !tbaa !62
  %16 = load ptr, ptr %15, align 8, !tbaa !47
  %17 = icmp ne ptr %16, null
  br label %18

18:                                               ; preds = %14, %11
  %19 = phi i1 [ false, %11 ], [ %17, %14 ]
  br i1 %19, label %20, label %41

20:                                               ; preds = %18
  %21 = load ptr, ptr %2, align 8, !tbaa !62
  %22 = load ptr, ptr %21, align 8, !tbaa !47
  %23 = call i32 @OBJ_txt2nid(ptr noundef %22)
  store i32 %23, ptr %3, align 4, !tbaa !16
  %24 = icmp ne i32 %23, 0
  br i1 %24, label %25, label %38

25:                                               ; preds = %20
  %26 = load i32, ptr %3, align 4, !tbaa !16
  %27 = call ptr @OBJ_nid2obj(i32 noundef %26)
  store ptr %27, ptr %5, align 8, !tbaa !18
  %28 = icmp ne ptr %27, null
  br i1 %28, label %29, label %38

29:                                               ; preds = %25
  %30 = load ptr, ptr %4, align 8, !tbaa !64
  %31 = call ptr @ossl_check_ASN1_OBJECT_sk_type(ptr noundef %30)
  %32 = load ptr, ptr %5, align 8, !tbaa !18
  %33 = call ptr @ossl_check_ASN1_OBJECT_type(ptr noundef %32)
  %34 = call i32 @OPENSSL_sk_push(ptr noundef %31, ptr noundef %33)
  %35 = icmp ne i32 %34, 0
  br i1 %35, label %37, label %36

36:                                               ; preds = %29
  br label %44

37:                                               ; preds = %29
  br label %38

38:                                               ; preds = %37, %25, %20
  %39 = load ptr, ptr %2, align 8, !tbaa !62
  %40 = getelementptr inbounds nuw ptr, ptr %39, i32 1
  store ptr %40, ptr %2, align 8, !tbaa !62
  br label %11, !llvm.loop !66

41:                                               ; preds = %18
  %42 = load ptr, ptr %4, align 8, !tbaa !64
  %43 = call ptr @X509V3_EXT_i2d(i32 noundef 368, i32 noundef 0, ptr noundef %42)
  store ptr %43, ptr %6, align 8, !tbaa !25
  br label %44

44:                                               ; preds = %41, %36, %9
  %45 = load ptr, ptr %4, align 8, !tbaa !64
  %46 = call ptr @ossl_check_ASN1_OBJECT_sk_type(ptr noundef %45)
  %47 = call ptr @ossl_check_ASN1_OBJECT_freefunc_type(ptr noundef @ASN1_OBJECT_free)
  call void @OPENSSL_sk_pop_free(ptr noundef %46, ptr noundef %47)
  %48 = load ptr, ptr %6, align 8, !tbaa !25
  call void @llvm.lifetime.end.p0(i64 8, ptr %6) #5
  call void @llvm.lifetime.end.p0(i64 8, ptr %5) #5
  call void @llvm.lifetime.end.p0(i64 8, ptr %4) #5
  call void @llvm.lifetime.end.p0(i64 4, ptr %3) #5
  ret ptr %48
}