; Function Attrs: nounwind uwtable
define ptr @OCSP_accept_responses_new(ptr noundef readonly captures(address_is_null) %0) local_unnamed_addr #0 {
  %2 = tail call ptr @OPENSSL_sk_new_null() #4
  %3 = icmp eq ptr %2, null
  br i1 %3, label %.loopexit, label %.preheader

.preheader:                                       ; preds = %1
  %.not17 = icmp eq ptr %0, null
  br i1 %.not17, label %.critedge, label %.lr.ph.preheader

.lr.ph.preheader:                                 ; preds = %.preheader
  %4 = load ptr, ptr %0, align 8, !tbaa !35
  %.not1320 = icmp eq ptr %4, null
  br i1 %.not1320, label %.critedge, label %.lr.ph22

.lr.ph22:                                         ; preds = %.lr.ph.preheader, %.lr.ph
  %5 = phi ptr [ %12, %.lr.ph ], [ %4, %.lr.ph.preheader ]
  %.091821 = phi ptr [ %11, %.lr.ph ], [ %0, %.lr.ph.preheader ]
  %6 = tail call i32 @OBJ_txt2nid(ptr noundef nonnull %5) #4
  %.not14 = icmp eq i32 %6, 0
  br i1 %.not14, label %.lr.ph, label %7

7:                                                ; preds = %.lr.ph22
  %8 = tail call ptr @OBJ_nid2obj(i32 noundef %6) #4
  %.not15 = icmp eq ptr %8, null
  br i1 %.not15, label %.lr.ph, label %9

9:                                                ; preds = %7
  %10 = tail call i32 @OPENSSL_sk_push(ptr noundef nonnull %2, ptr noundef nonnull %8) #4
  %.not16 = icmp eq i32 %10, 0
  br i1 %.not16, label %.loopexit, label %.lr.ph

.lr.ph:                                           ; preds = %9, %7, %.lr.ph22
  %11 = getelementptr inbounds nuw i8, ptr %.091821, i64 8
  %12 = load ptr, ptr %11, align 8, !tbaa !35
  %.not13 = icmp eq ptr %12, null
  br i1 %.not13, label %.critedge, label %.lr.ph22

.critedge:                                        ; preds = %.lr.ph, %.lr.ph.preheader, %.preheader
  %13 = tail call ptr @X509V3_EXT_i2d(i32 noundef 368, i32 noundef 0, ptr noundef nonnull %2) #4
  br label %.loopexit

.loopexit:                                        ; preds = %9, %1, %.critedge
  %.0 = phi ptr [ null, %1 ], [ %13, %.critedge ], [ null, %9 ]
  tail call void @OPENSSL_sk_pop_free(ptr noundef %2, ptr noundef nonnull @ASN1_OBJECT_free) #4
  ret ptr %.0
}